target datalayout = "e-m:e-p270:32:32-p271:32:32-p272:64:64-i64:64-i128:128-f80:128-n8:16:32:64-S128"
target triple = "x86_64-pc-linux-gnu"

%struct.evp_test_st = type { %struct.stanza_st, ptr, i32, ptr, ptr, ptr, ptr, ptr, ptr, i32 }
%struct.stanza_st = type { ptr, ptr, i32, i32, i32, i32, i32, i32, [150 x %struct.pair_st], ptr, [32768 x i8] }
%struct.pair_st = type { ptr, ptr }
%struct.keygen_test_data_st = type { ptr, ptr, ptr, ptr, ptr, ptr, i64, ptr, i64, ptr, i64 }

@.str.29 = private unnamed_addr constant [27 x i8] c"../openssl/test/evp_test.c\00", align 1
@.str.252 = private unnamed_addr constant [5 x i8] c"Ctrl\00", align 1
@.str.327 = private unnamed_addr constant [8 x i8] c"KeyName\00", align 1
@.str.328 = private unnamed_addr constant [40 x i8] c"keygen->keyname = OPENSSL_strdup(value)\00", align 1
@.str.329 = private unnamed_addr constant [9 x i8] c"KeyParam\00", align 1
@.str.330 = private unnamed_addr constant [42 x i8] c"keygen->paramname = OPENSSL_strdup(value)\00", align 1
@.str.331 = private unnamed_addr constant [8 x i8] c"CtrlOut\00", align 1
@.str.332 = private unnamed_addr constant [5 x i8] c"Seed\00", align 1
@.str.333 = private unnamed_addr constant [17 x i8] c"EncodedPublicKey\00", align 1
@.str.334 = private unnamed_addr constant [18 x i8] c"EncodedPrivateKey\00", align 1

; Function Attrs: inlinehint nounwind uwtable
define internal ptr @ossl_check_OPENSSL_STRING_type(ptr noundef %0) #5 {
  %2 = alloca ptr, align 8
  store ptr %0, ptr %2, align 8, !tbaa !4
  %3 = load ptr, ptr %2, align 8, !tbaa !4
  ret ptr %3
}

; Function Attrs: inlinehint nounwind uwtable
define internal ptr @ossl_check_OPENSSL_STRING_sk_type(ptr noundef %0) #5 {
  %2 = alloca ptr, align 8
  store ptr %0, ptr %2, align 8, !tbaa !131
  %3 = load ptr, ptr %2, align 8, !tbaa !131
  ret ptr %3
}

; Function Attrs: nounwind uwtable
define internal i32 @ctrladd(ptr noundef %0, ptr noundef %1) #0 {
  %3 = alloca i32, align 4
  %4 = alloca ptr, align 8
  %5 = alloca ptr, align 8
  %6 = alloca ptr, align 8
  %7 = alloca i32, align 4
  store ptr %0, ptr %4, align 8, !tbaa !131
  store ptr %1, ptr %5, align 8, !tbaa !4
  call void @llvm.lifetime.start.p0(i64 8, ptr %6) #10
  %8 = load ptr, ptr %5, align 8, !tbaa !4
  %9 = call noalias ptr @CRYPTO_strdup(ptr noundef %8, ptr noundef @.str.29, i32 noundef 202)
  store ptr %9, ptr %6, align 8, !tbaa !4
  %10 = load ptr, ptr %6, align 8, !tbaa !4
  %11 = icmp eq ptr %10, null
  br i1 %11, label %12, label %13

12:                                               ; preds = %2
  store i32 -1, ptr %3, align 4
  store i32 1, ptr %7, align 4
  br label %23

13:                                               ; preds = %2
  %14 = load ptr, ptr %4, align 8, !tbaa !131
  %15 = call ptr @ossl_check_OPENSSL_STRING_sk_type(ptr noundef %14)
  %16 = load ptr, ptr %6, align 8, !tbaa !4
  %17 = call ptr @ossl_check_OPENSSL_STRING_type(ptr noundef %16)
  %18 = call i32 @OPENSSL_sk_push(ptr noundef %15, ptr noundef %17)
  %19 = icmp sle i32 %18, 0
  br i1 %19, label %20, label %22

20:                                               ; preds = %13
  %21 = load ptr, ptr %6, align 8, !tbaa !4
  call void @CRYPTO_free(ptr noundef %21, ptr noundef @.str.29, i32 noundef 208)
  store i32 -1, ptr %3, align 4
  store i32 1, ptr %7, align 4
  br label %23

22:                                               ; preds = %13
  store i32 1, ptr %3, align 4
  store i32 1, ptr %7, align 4
  br label %23

23:                                               ; preds = %22, %20, %12
  call void @llvm.lifetime.end.p0(i64 8, ptr %6) #10
  %24 = load i32, ptr %3, align 4
  ret i32 %24
}

; Function Attrs: nounwind uwtable
define internal i32 @keygen_test_parse(ptr noundef %0, ptr noundef %1, ptr noundef %2) #0 {
  %4 = alloca i32, align 4
  %5 = alloca ptr, align 8
  %6 = alloca ptr, align 8
  %7 = alloca ptr, align 8
  %8 = alloca ptr, align 8
  %9 = alloca i32, align 4
  store ptr %0, ptr %5, align 8, !tbaa !15
  store ptr %1, ptr %6, align 8, !tbaa !4
  store ptr %2, ptr %7, align 8, !tbaa !4
  call void @llvm.lifetime.start.p0(i64 8, ptr %8) #10
  %10 = load ptr, ptr %5, align 8, !tbaa !15
  %11 = getelementptr inbounds nuw %struct.evp_test_st, ptr %10, i32 0, i32 8
  %12 = load ptr, ptr %11, align 8, !tbaa !66
  store ptr %12, ptr %8, align 8, !tbaa !267
  %13 = load ptr, ptr %6, align 8, !tbaa !4
  %14 = call i32 @strcmp(ptr noundef %13, ptr noundef @.str.327) #11
  %15 = icmp eq i32 %14, 0
  br i1 %15, label %16, label %22

16:                                               ; preds = %3
  %17 = load ptr, ptr %7, align 8, !tbaa !4
  %18 = call noalias ptr @CRYPTO_strdup(ptr noundef %17, ptr noundef @.str.29, i32 noundef 4226)
  %19 = load ptr, ptr %8, align 8, !tbaa !267
  %20 = getelementptr inbounds nuw %struct.keygen_test_data_st, ptr %19, i32 0, i32 0
  store ptr %18, ptr %20, align 8, !tbaa !269
  %21 = call i32 @test_ptr(ptr noundef @.str.29, i32 noundef 4226, ptr noundef @.str.328, ptr noundef %18)
  store i32 %21, ptr %4, align 4
  store i32 1, ptr %9, align 4
  br label %86

22:                                               ; preds = %3
  %23 = load ptr, ptr %6, align 8, !tbaa !4
  %24 = call i32 @strcmp(ptr noundef %23, ptr noundef @.str.329) #11
  %25 = icmp eq i32 %24, 0
  br i1 %25, label %26, label %32

26:                                               ; preds = %22
  %27 = load ptr, ptr %7, align 8, !tbaa !4
  %28 = call noalias ptr @CRYPTO_strdup(ptr noundef %27, ptr noundef @.str.29, i32 noundef 4228)
  %29 = load ptr, ptr %8, align 8, !tbaa !267
  %30 = getelementptr inbounds nuw %struct.keygen_test_data_st, ptr %29, i32 0, i32 1
  store ptr %28, ptr %30, align 8, !tbaa !271
  %31 = call i32 @test_ptr(ptr noundef @.str.29, i32 noundef 4228, ptr noundef @.str.330, ptr noundef %28)
  store i32 %31, ptr %4, align 4
  store i32 1, ptr %9, align 4
  br label %86

32:                                               ; preds = %22
  %33 = load ptr, ptr %6, align 8, !tbaa !4
  %34 = call i32 @strcmp(ptr noundef %33, ptr noundef @.str.252) #11
  %35 = icmp eq i32 %34, 0
  br i1 %35, label %36, label %42

36:                                               ; preds = %32
  %37 = load ptr, ptr %8, align 8, !tbaa !267
  %38 = getelementptr inbounds nuw %struct.keygen_test_data_st, ptr %37, i32 0, i32 3
  %39 = load ptr, ptr %38, align 8, !tbaa !272
  %40 = load ptr, ptr %7, align 8, !tbaa !4
  %41 = call i32 @ctrladd(ptr noundef %39, ptr noundef %40)
  store i32 %41, ptr %4, align 4
  store i32 1, ptr %9, align 4
  br label %86

42:                                               ; preds = %32
  %43 = load ptr, ptr %6, align 8, !tbaa !4
  %44 = call i32 @strcmp(ptr noundef %43, ptr noundef @.str.331) #11
  %45 = icmp eq i32 %44, 0
  br i1 %45, label %46, label %52

46:                                               ; preds = %42
  %47 = load ptr, ptr %8, align 8, !tbaa !267
  %48 = getelementptr inbounds nuw %struct.keygen_test_data_st, ptr %47, i32 0, i32 4
  %49 = load ptr, ptr %48, align 8, !tbaa !273
  %50 = load ptr, ptr %7, align 8, !tbaa !4
  %51 = call i32 @ctrladd(ptr noundef %49, ptr noundef %50)
  store i32 %51, ptr %4, align 4
  store i32 1, ptr %9, align 4
  br label %86

52:                                               ; preds = %42
  %53 = load ptr, ptr %6, align 8, !tbaa !4
  %54 = call i32 @strcmp(ptr noundef %53, ptr noundef @.str.332) #11
  %55 = icmp eq i32 %54, 0
  br i1 %55, label %56, label %63

56:                                               ; preds = %52
  %57 = load ptr, ptr %7, align 8, !tbaa !4
  %58 = load ptr, ptr %8, align 8, !tbaa !267
  %59 = getelementptr inbounds nuw %struct.keygen_test_data_st, ptr %58, i32 0, i32 5
  %60 = load ptr, ptr %8, align 8, !tbaa !267
  %61 = getelementptr inbounds nuw %struct.keygen_test_data_st, ptr %60, i32 0, i32 6
  %62 = call i32 @parse_bin(ptr noundef %57, ptr noundef %59, ptr noundef %61)
  store i32 %62, ptr %4, align 4
  store i32 1, ptr %9, align 4
  br label %86

63:                                               ; preds = %52
  %64 = load ptr, ptr %6, align 8, !tbaa !4
  %65 = call i32 @strcmp(ptr noundef %64, ptr noundef @.str.333) #11
  %66 = icmp eq i32 %65, 0
  br i1 %66, label %67, label %74

67:                                               ; preds = %63
  %68 = load ptr, ptr %7, align 8, !tbaa !4
  %69 = load ptr, ptr %8, align 8, !tbaa !267
  %70 = getelementptr inbounds nuw %struct.keygen_test_data_st, ptr %69, i32 0, i32 7
  %71 = load ptr, ptr %8, align 8, !tbaa !267
  %72 = getelementptr inbounds nuw %struct.keygen_test_data_st, ptr %71, i32 0, i32 8
  %73 = call i32 @parse_bin(ptr noundef %68, ptr noundef %70, ptr noundef %72)
  store i32 %73, ptr %4, align 4
  store i32 1, ptr %9, align 4
  br label %86

74:                                               ; preds = %63
  %75 = load ptr, ptr %6, align 8, !tbaa !4
  %76 = call i32 @strcmp(ptr noundef %75, ptr noundef @.str.334) #11
  %77 = icmp eq i32 %76, 0
  br i1 %77, label %78, label %85

78:                                               ; preds = %74
  %79 = load ptr, ptr %7, align 8, !tbaa !4
  %80 = load ptr, ptr %8, align 8, !tbaa !267
  %81 = getelementptr inbounds nuw %struct.keygen_test_data_st, ptr %80, i32 0, i32 9
  %82 = load ptr, ptr %8, align 8, !tbaa !267
  %83 = getelementptr inbounds nuw %struct.keygen_test_data_st, ptr %82, i32 0, i32 10
  %84 = call i32 @parse_bin(ptr noundef %79, ptr noundef %81, ptr noundef %83)
  store i32 %84, ptr %4, align 4
  store i32 1, ptr %9, align 4
  br label %86

85:                                               ; preds = %74
  store i32 0, ptr %4, align 4
  store i32 1, ptr %9, align 4
  br label %86

86:                                               ; preds = %85, %78, %67, %56, %46, %36, %26, %16
  call void @llvm.lifetime.end.p0(i64 8, ptr %8) #10
  %87 = load i32, ptr %4, align 4
  ret i32 %87
}