; Function Attrs: nounwind uwtable
define internal i32 @keygen_test_parse(ptr noundef readonly captures(none) %0, ptr noundef readonly captures(none) %1, ptr noundef %2) #1 {
  %4 = getelementptr inbounds nuw i8, ptr %0, i64 35272
  %5 = load ptr, ptr %4, align 8, !tbaa !20
  %6 = tail call i32 @strcmp(ptr noundef nonnull dereferenceable(1) %1, ptr noundef nonnull dereferenceable(8) @.str.327) #11
  %7 = icmp eq i32 %6, 0
  br i1 %7, label %8, label %11

8:                                                ; preds = %3
  %9 = tail call noalias ptr @CRYPTO_strdup(ptr noundef %2, ptr noundef nonnull @.str.29, i32 noundef 4226) #10
  store ptr %9, ptr %5, align 8, !tbaa !218
  %10 = tail call i32 @test_ptr(ptr noundef nonnull @.str.29, i32 noundef 4226, ptr noundef nonnull @.str.328, ptr noundef %9) #10
  br label %ctrladd.exit

11:                                               ; preds = %3
  %12 = tail call i32 @strcmp(ptr noundef nonnull dereferenceable(1) %1, ptr noundef nonnull dereferenceable(9) @.str.329) #11
  %13 = icmp eq i32 %12, 0
  br i1 %13, label %14, label %18

14:                                               ; preds = %11
  %15 = tail call noalias ptr @CRYPTO_strdup(ptr noundef %2, ptr noundef nonnull @.str.29, i32 noundef 4228) #10
  %16 = getelementptr inbounds nuw i8, ptr %5, i64 8
  store ptr %15, ptr %16, align 8, !tbaa !219
  %17 = tail call i32 @test_ptr(ptr noundef nonnull @.str.29, i32 noundef 4228, ptr noundef nonnull @.str.330, ptr noundef %15) #10
  br label %ctrladd.exit

18:                                               ; preds = %11
  %19 = tail call i32 @strcmp(ptr noundef nonnull dereferenceable(1) %1, ptr noundef nonnull dereferenceable(5) @.str.252) #11
  %20 = icmp eq i32 %19, 0
  br i1 %20, label %21, label %30

21:                                               ; preds = %18
  %22 = getelementptr inbounds nuw i8, ptr %5, i64 24
  %23 = load ptr, ptr %22, align 8, !tbaa !214
  %24 = tail call noalias ptr @CRYPTO_strdup(ptr noundef %2, ptr noundef nonnull @.str.29, i32 noundef 202) #10
  %25 = icmp eq ptr %24, null
  br i1 %25, label %ctrladd.exit, label %26

26:                                               ; preds = %21
  %27 = tail call i32 @OPENSSL_sk_push(ptr noundef %23, ptr noundef nonnull %24) #10
  %28 = icmp slt i32 %27, 1
  br i1 %28, label %29, label %ctrladd.exit

29:                                               ; preds = %26
  tail call void @CRYPTO_free(ptr noundef nonnull %24, ptr noundef nonnull @.str.29, i32 noundef 208) #10
  br label %ctrladd.exit

30:                                               ; preds = %18
  %31 = tail call i32 @strcmp(ptr noundef nonnull dereferenceable(1) %1, ptr noundef nonnull dereferenceable(8) @.str.331) #11
  %32 = icmp eq i32 %31, 0
  br i1 %32, label %33, label %42

33:                                               ; preds = %30
  %34 = getelementptr inbounds nuw i8, ptr %5, i64 32
  %35 = load ptr, ptr %34, align 8, !tbaa !216
  %36 = tail call noalias ptr @CRYPTO_strdup(ptr noundef %2, ptr noundef nonnull @.str.29, i32 noundef 202) #10
  %37 = icmp eq ptr %36, null
  br i1 %37, label %ctrladd.exit, label %38

38:                                               ; preds = %33
  %39 = tail call i32 @OPENSSL_sk_push(ptr noundef %35, ptr noundef nonnull %36) #10
  %40 = icmp slt i32 %39, 1
  br i1 %40, label %41, label %ctrladd.exit

41:                                               ; preds = %38
  tail call void @CRYPTO_free(ptr noundef nonnull %36, ptr noundef nonnull @.str.29, i32 noundef 208) #10
  br label %ctrladd.exit

42:                                               ; preds = %30
  %43 = tail call i32 @strcmp(ptr noundef nonnull dereferenceable(1) %1, ptr noundef nonnull dereferenceable(5) @.str.332) #11
  %44 = icmp eq i32 %43, 0
  br i1 %44, label %45, label %49

45:                                               ; preds = %42
  %46 = getelementptr inbounds nuw i8, ptr %5, i64 40
  %47 = getelementptr inbounds nuw i8, ptr %5, i64 48
  %48 = tail call fastcc i32 @parse_bin(ptr noundef %2, ptr noundef nonnull %46, ptr noundef nonnull %47)
  br label %ctrladd.exit

49:                                               ; preds = %42
  %50 = tail call i32 @strcmp(ptr noundef nonnull dereferenceable(1) %1, ptr noundef nonnull dereferenceable(17) @.str.333) #11
  %51 = icmp eq i32 %50, 0
  br i1 %51, label %52, label %56

52:                                               ; preds = %49
  %53 = getelementptr inbounds nuw i8, ptr %5, i64 56
  %54 = getelementptr inbounds nuw i8, ptr %5, i64 64
  %55 = tail call fastcc i32 @parse_bin(ptr noundef %2, ptr noundef nonnull %53, ptr noundef nonnull %54)
  br label %ctrladd.exit

56:                                               ; preds = %49
  %57 = tail call i32 @strcmp(ptr noundef nonnull dereferenceable(1) %1, ptr noundef nonnull dereferenceable(18) @.str.334) #11
  %58 = icmp eq i32 %57, 0
  br i1 %58, label %59, label %ctrladd.exit

59:                                               ; preds = %56
  %60 = getelementptr inbounds nuw i8, ptr %5, i64 72
  %61 = getelementptr inbounds nuw i8, ptr %5, i64 80
  %62 = tail call fastcc i32 @parse_bin(ptr noundef %2, ptr noundef nonnull %60, ptr noundef nonnull %61)
  br label %ctrladd.exit

ctrladd.exit:                                     ; preds = %41, %38, %33, %29, %26, %21, %56, %59, %52, %45, %14, %8
  %.0 = phi i32 [ %10, %8 ], [ %17, %14 ], [ %48, %45 ], [ %55, %52 ], [ %62, %59 ], [ 0, %56 ], [ -1, %29 ], [ -1, %21 ], [ 1, %26 ], [ -1, %41 ], [ -1, %33 ], [ 1, %38 ]
  ret i32 %.0
}